target datalayout = "e-m:e-p270:32:32-p271:32:32-p272:64:64-i64:64-i128:128-f80:128-n8:16:32:64-S128"
target triple = "x86_64-pc-linux-gnu"

%struct.lexbor_str_t = type { ptr, i64 }

; Function Attrs: nounwind uwtable
define internal zeroext i1 @lxb_selectors_match_class(ptr noundef %0, ptr noundef %1, i1 noundef zeroext %2) #0 {
  %4 = alloca i1, align 1
  %5 = alloca ptr, align 8
  %6 = alloca ptr, align 8
  %7 = alloca i8, align 1
  %8 = alloca i8, align 1
  %9 = alloca i8, align 1
  %10 = alloca ptr, align 8
  %11 = alloca ptr, align 8
  %12 = alloca ptr, align 8
  store ptr %0, ptr %5, align 8
  store ptr %1, ptr %6, align 8
  %13 = zext i1 %2 to i8
  store i8 %13, ptr %7, align 1
  %14 = load ptr, ptr %5, align 8
  %15 = getelementptr inbounds %struct.lexbor_str_t, ptr %14, i32 0, i32 1
  %16 = load i64, ptr %15, align 8
  %17 = load ptr, ptr %6, align 8
  %18 = getelementptr inbounds %struct.lexbor_str_t, ptr %17, i32 0, i32 1
  %19 = load i64, ptr %18, align 8
  %20 = icmp ult i64 %16, %19
  br i1 %20, label %21, label %22

21:                                               ; preds = %3
  store i1 false, ptr %4, align 1
  br label %156

22:                                               ; preds = %3
  store i8 0, ptr %9, align 1
  %23 = load ptr, ptr %5, align 8
  %24 = getelementptr inbounds %struct.lexbor_str_t, ptr %23, i32 0, i32 0
  %25 = load ptr, ptr %24, align 8
  store ptr %25, ptr %10, align 8
  %26 = load ptr, ptr %10, align 8
  store ptr %26, ptr %11, align 8
  %27 = load ptr, ptr %10, align 8
  %28 = load ptr, ptr %5, align 8
  %29 = getelementptr inbounds %struct.lexbor_str_t, ptr %28, i32 0, i32 1
  %30 = load i64, ptr %29, align 8
  %31 = getelementptr inbounds i8, ptr %27, i64 %30
  store ptr %31, ptr %12, align 8
  br label %32

32:                                               ; preds = %111, %22
  %33 = load ptr, ptr %10, align 8
  %34 = load ptr, ptr %12, align 8
  %35 = icmp ult ptr %33, %34
  br i1 %35, label %36, label %114

36:                                               ; preds = %32
  %37 = load ptr, ptr %10, align 8
  %38 = load i8, ptr %37, align 1
  store i8 %38, ptr %8, align 1
  %39 = load i8, ptr %8, align 1
  %40 = zext i8 %39 to i32
  %41 = icmp eq i32 %40, 32
  br i1 %41, label %58, label %42

42:                                               ; preds = %36
  %43 = load i8, ptr %8, align 1
  %44 = zext i8 %43 to i32
  %45 = icmp eq i32 %44, 9
  br i1 %45, label %58, label %46

46:                                               ; preds = %42
  %47 = load i8, ptr %8, align 1
  %48 = zext i8 %47 to i32
  %49 = icmp eq i32 %48, 10
  br i1 %49, label %58, label %50

50:                                               ; preds = %46
  %51 = load i8, ptr %8, align 1
  %52 = zext i8 %51 to i32
  %53 = icmp eq i32 %52, 12
  br i1 %53, label %58, label %54

54:                                               ; preds = %50
  %55 = load i8, ptr %8, align 1
  %56 = zext i8 %55 to i32
  %57 = icmp eq i32 %56, 13
  br i1 %57, label %58, label %110

58:                                               ; preds = %54, %50, %46, %42, %36
  %59 = load ptr, ptr %10, align 8
  %60 = load ptr, ptr %11, align 8
  %61 = ptrtoint ptr %59 to i64
  %62 = ptrtoint ptr %60 to i64
  %63 = sub i64 %61, %62
  %64 = load ptr, ptr %6, align 8
  %65 = getelementptr inbounds %struct.lexbor_str_t, ptr %64, i32 0, i32 1
  %66 = load i64, ptr %65, align 8
  %67 = icmp eq i64 %63, %66
  br i1 %67, label %68, label %96

68:                                               ; preds = %58
  %69 = load i8, ptr %7, align 1
  %70 = trunc i8 %69 to i1
  br i1 %70, label %71, label %81

71:                                               ; preds = %68
  %72 = load ptr, ptr %11, align 8
  %73 = load ptr, ptr %6, align 8
  %74 = getelementptr inbounds %struct.lexbor_str_t, ptr %73, i32 0, i32 0
  %75 = load ptr, ptr %74, align 8
  %76 = load ptr, ptr %6, align 8
  %77 = getelementptr inbounds %struct.lexbor_str_t, ptr %76, i32 0, i32 1
  %78 = load i64, ptr %77, align 8
  %79 = call zeroext i1 @lexbor_str_data_ncasecmp(ptr noundef %72, ptr noundef %75, i64 noundef %78)
  %80 = zext i1 %79 to i8
  store i8 %80, ptr %9, align 1
  br label %91

81:                                               ; preds = %68
  %82 = load ptr, ptr %11, align 8
  %83 = load ptr, ptr %6, align 8
  %84 = getelementptr inbounds %struct.lexbor_str_t, ptr %83, i32 0, i32 0
  %85 = load ptr, ptr %84, align 8
  %86 = load ptr, ptr %6, align 8
  %87 = getelementptr inbounds %struct.lexbor_str_t, ptr %86, i32 0, i32 1
  %88 = load i64, ptr %87, align 8
  %89 = call zeroext i1 @lexbor_str_data_ncmp(ptr noundef %82, ptr noundef %85, i64 noundef %88)
  %90 = zext i1 %89 to i8
  store i8 %90, ptr %9, align 1
  br label %91

91:                                               ; preds = %81, %71
  %92 = load i8, ptr %9, align 1
  %93 = trunc i8 %92 to i1
  br i1 %93, label %94, label %95

94:                                               ; preds = %91
  store i1 true, ptr %4, align 1
  br label %156

95:                                               ; preds = %91
  br label %96

96:                                               ; preds = %95, %58
  %97 = load ptr, ptr %12, align 8
  %98 = load ptr, ptr %10, align 8
  %99 = ptrtoint ptr %97 to i64
  %100 = ptrtoint ptr %98 to i64
  %101 = sub i64 %99, %100
  %102 = load ptr, ptr %6, align 8
  %103 = getelementptr inbounds %struct.lexbor_str_t, ptr %102, i32 0, i32 1
  %104 = load i64, ptr %103, align 8
  %105 = icmp ult i64 %101, %104
  br i1 %105, label %106, label %107

106:                                              ; preds = %96
  store i1 false, ptr %4, align 1
  br label %156

107:                                              ; preds = %96
  %108 = load ptr, ptr %10, align 8
  %109 = getelementptr inbounds i8, ptr %108, i64 1
  store ptr %109, ptr %11, align 8
  br label %110

110:                                              ; preds = %107, %54
  br label %111

111:                                              ; preds = %110
  %112 = load ptr, ptr %10, align 8
  %113 = getelementptr inbounds i8, ptr %112, i32 1
  store ptr %113, ptr %10, align 8
  br label %32

114:                                              ; preds = %32
  %115 = load ptr, ptr %12, align 8
  %116 = load ptr, ptr %11, align 8
  %117 = ptrtoint ptr %115 to i64
  %118 = ptrtoint ptr %116 to i64
  %119 = sub i64 %117, %118
  %120 = load ptr, ptr %6, align 8
  %121 = getelementptr inbounds %struct.lexbor_str_t, ptr %120, i32 0, i32 1
  %122 = load i64, ptr %121, align 8
  %123 = icmp eq i64 %119, %122
  br i1 %123, label %124, label %153

124:                                              ; preds = %114
  %125 = load ptr, ptr %6, align 8
  %126 = getelementptr inbounds %struct.lexbor_str_t, ptr %125, i32 0, i32 1
  %127 = load i64, ptr %126, align 8
  %128 = icmp ne i64 %127, 0
  br i1 %128, label %129, label %153

129:                                              ; preds = %124
  %130 = load i8, ptr %7, align 1
  %131 = trunc i8 %130 to i1
  br i1 %131, label %132, label %142

132:                                              ; preds = %129
  %133 = load ptr, ptr %11, align 8
  %134 = load ptr, ptr %6, align 8
  %135 = getelementptr inbounds %struct.lexbor_str_t, ptr %134, i32 0, i32 0
  %136 = load ptr, ptr %135, align 8
  %137 = load ptr, ptr %6, align 8
  %138 = getelementptr inbounds %struct.lexbor_str_t, ptr %137, i32 0, i32 1
  %139 = load i64, ptr %138, align 8
  %140 = call zeroext i1 @lexbor_str_data_ncasecmp(ptr noundef %133, ptr noundef %136, i64 noundef %139)
  %141 = zext i1 %140 to i8
  store i8 %141, ptr %9, align 1
  br label %152

142:                                              ; preds = %129
  %143 = load ptr, ptr %11, align 8
  %144 = load ptr, ptr %6, align 8
  %145 = getelementptr inbounds %struct.lexbor_str_t, ptr %144, i32 0, i32 0
  %146 = load ptr, ptr %145, align 8
  %147 = load ptr, ptr %6, align 8
  %148 = getelementptr inbounds %struct.lexbor_str_t, ptr %147, i32 0, i32 1
  %149 = load i64, ptr %148, align 8
  %150 = call zeroext i1 @lexbor_str_data_ncmp(ptr noundef %143, ptr noundef %146, i64 noundef %149)
  %151 = zext i1 %150 to i8
  store i8 %151, ptr %9, align 1
  br label %152

152:                                              ; preds = %142, %132
  br label %153

153:                                              ; preds = %152, %124, %114
  %154 = load i8, ptr %9, align 1
  %155 = trunc i8 %154 to i1
  store i1 %155, ptr %4, align 1
  br label %156

156:                                              ; preds = %153, %106, %94, %21
  %157 = load i1, ptr %4, align 1
  ret i1 %157
}