; Function Attrs: nounwind uwtable
define internal fastcc zeroext i1 @lxb_selectors_match_class(ptr nocapture noundef readonly %0, ptr nocapture noundef readonly %1, i1 noundef zeroext %2) unnamed_addr #0 {
  %4 = getelementptr inbounds i8, ptr %0, i64 8
  %5 = load i64, ptr %4, align 8
  %6 = getelementptr inbounds i8, ptr %1, i64 8
  %7 = load i64, ptr %6, align 8
  %8 = icmp ult i64 %5, %7
  br i1 %8, label %.loopexit, label %9

9:                                                ; preds = %3
  %10 = load ptr, ptr %0, align 8
  %11 = getelementptr inbounds i8, ptr %10, i64 %5
  %12 = icmp sgt i64 %5, 0
  %13 = ptrtoint ptr %11 to i64
  br i1 %12, label %.lr.ph, label %._crit_edge

.lr.ph:                                           ; preds = %9
  br i1 %2, label %.lr.ph.split.us, label %.lr.ph.split

.lr.ph.split.us:                                  ; preds = %.lr.ph, %31
  %14 = phi i64 [ %32, %31 ], [ %7, %.lr.ph ]
  %15 = phi i64 [ %33, %31 ], [ %7, %.lr.ph ]
  %.05365.us = phi ptr [ %.1.us, %31 ], [ %10, %.lr.ph ]
  %.05464.us = phi ptr [ %34, %31 ], [ %10, %.lr.ph ]
  %16 = load i8, ptr %.05464.us, align 1
  switch i8 %16, label %31 [
    i8 32, label %17
    i8 13, label %17
    i8 12, label %17
    i8 10, label %17
    i8 9, label %17
  ]

17:                                               ; preds = %.lr.ph.split.us, %.lr.ph.split.us, %.lr.ph.split.us, %.lr.ph.split.us, %.lr.ph.split.us
  %18 = ptrtoint ptr %.05464.us to i64
  %19 = ptrtoint ptr %.05365.us to i64
  %20 = sub i64 %18, %19
  %21 = icmp eq i64 %20, %15
  br i1 %21, label %22, label %25

22:                                               ; preds = %17
  %23 = load ptr, ptr %1, align 8
  %24 = tail call zeroext i1 @lexbor_str_data_ncasecmp(ptr noundef %.05365.us, ptr noundef %23, i64 noundef %15) #6
  br i1 %24, label %.loopexit, label %._crit_edge71

._crit_edge71:                                    ; preds = %22
  %.pre72 = load i64, ptr %6, align 8
  br label %25

25:                                               ; preds = %._crit_edge71, %17
  %26 = phi i64 [ %.pre72, %._crit_edge71 ], [ %14, %17 ]
  %27 = sub i64 %13, %18
  %28 = icmp ult i64 %27, %26
  br i1 %28, label %.loopexit, label %29

29:                                               ; preds = %25
  %30 = getelementptr inbounds i8, ptr %.05464.us, i64 1
  br label %31

31:                                               ; preds = %29, %.lr.ph.split.us
  %32 = phi i64 [ %26, %29 ], [ %14, %.lr.ph.split.us ]
  %33 = phi i64 [ %26, %29 ], [ %15, %.lr.ph.split.us ]
  %.1.us = phi ptr [ %30, %29 ], [ %.05365.us, %.lr.ph.split.us ]
  %34 = getelementptr inbounds i8, ptr %.05464.us, i64 1
  %35 = icmp ult ptr %34, %11
  br i1 %35, label %.lr.ph.split.us, label %._crit_edge

.lr.ph.split:                                     ; preds = %.lr.ph, %53
  %36 = phi i64 [ %54, %53 ], [ %7, %.lr.ph ]
  %37 = phi i64 [ %55, %53 ], [ %7, %.lr.ph ]
  %.05365 = phi ptr [ %.1, %53 ], [ %10, %.lr.ph ]
  %.05464 = phi ptr [ %56, %53 ], [ %10, %.lr.ph ]
  %38 = load i8, ptr %.05464, align 1
  switch i8 %38, label %53 [
    i8 32, label %39
    i8 13, label %39
    i8 12, label %39
    i8 10, label %39
    i8 9, label %39
  ]

39:                                               ; preds = %.lr.ph.split, %.lr.ph.split, %.lr.ph.split, %.lr.ph.split, %.lr.ph.split
  %40 = ptrtoint ptr %.05464 to i64
  %41 = ptrtoint ptr %.05365 to i64
  %42 = sub i64 %40, %41
  %43 = icmp eq i64 %42, %37
  br i1 %43, label %44, label %47

44:                                               ; preds = %39
  %45 = load ptr, ptr %1, align 8
  %46 = tail call zeroext i1 @lexbor_str_data_ncmp(ptr noundef %.05365, ptr noundef %45, i64 noundef %37) #6
  br i1 %46, label %.loopexit, label %._crit_edge70

._crit_edge70:                                    ; preds = %44
  %.pre = load i64, ptr %6, align 8
  br label %47

47:                                               ; preds = %._crit_edge70, %39
  %48 = phi i64 [ %.pre, %._crit_edge70 ], [ %36, %39 ]
  %49 = sub i64 %13, %40
  %50 = icmp ult i64 %49, %48
  br i1 %50, label %.loopexit, label %51

51:                                               ; preds = %47
  %52 = getelementptr inbounds i8, ptr %.05464, i64 1
  br label %53

53:                                               ; preds = %.lr.ph.split, %51
  %54 = phi i64 [ %48, %51 ], [ %36, %.lr.ph.split ]
  %55 = phi i64 [ %48, %51 ], [ %37, %.lr.ph.split ]
  %.1 = phi ptr [ %52, %51 ], [ %.05365, %.lr.ph.split ]
  %56 = getelementptr inbounds i8, ptr %.05464, i64 1
  %57 = icmp ult ptr %56, %11
  br i1 %57, label %.lr.ph.split, label %._crit_edge

._crit_edge:                                      ; preds = %53, %31, %9
  %58 = phi i64 [ %7, %9 ], [ %32, %31 ], [ %54, %53 ]
  %.053.lcssa = phi ptr [ %10, %9 ], [ %.1.us, %31 ], [ %.1, %53 ]
  %59 = ptrtoint ptr %.053.lcssa to i64
  %60 = sub i64 %13, %59
  %61 = icmp ne i64 %60, %58
  %.not = icmp eq i64 %58, 0
  %or.cond = or i1 %61, %.not
  br i1 %or.cond, label %.loopexit, label %62

62:                                               ; preds = %._crit_edge
  %63 = load ptr, ptr %1, align 8
  br i1 %2, label %64, label %66

64:                                               ; preds = %62
  %65 = tail call zeroext i1 @lexbor_str_data_ncasecmp(ptr noundef %.053.lcssa, ptr noundef %63, i64 noundef %58) #6
  br label %.loopexit

66:                                               ; preds = %62
  %67 = tail call zeroext i1 @lexbor_str_data_ncmp(ptr noundef %.053.lcssa, ptr noundef %63, i64 noundef %58) #6
  br label %.loopexit

.loopexit:                                        ; preds = %44, %47, %25, %22, %._crit_edge, %66, %64, %3
  %.0 = phi i1 [ false, %3 ], [ %65, %64 ], [ %67, %66 ], [ false, %._crit_edge ], [ true, %22 ], [ false, %25 ], [ false, %47 ], [ true, %44 ]
  ret i1 %.0
}